	.arch armv8-a
	.file	"test.c"
	.text
.Ltext0:
	.cfi_sections	.debug_frame
	.comm	a,720,8
	.comm	b,4,4
	.comm	c,4,4
	.comm	d,4,4
	.comm	e,144,8
	.comm	f,4,4
	.align	2
	.global	bb
	.type	bb, %function
bb:
.LFB0:
	.file 1 "./test.c"
	.loc 1 5 0
	.cfi_startproc
	sub	sp, sp, #16
	.cfi_def_cfa_offset 16
	.loc 1 7 0
	ldr	w0, [sp, 12]
	.loc 1 8 0
	add	sp, sp, 16
	.cfi_def_cfa_offset 0
	ret
	.cfi_endproc
.LFE0:
	.size	bb, .-bb
	.align	2
	.global	aa
	.type	aa, %function
aa:
.LFB1:
	.loc 1 10 0
	.cfi_startproc
	stp	x29, x30, [sp, -32]!
	.cfi_def_cfa_offset 16
	.cfi_offset 29, -16
	.cfi_offset 30, -8
	add	x29, sp, 0
	.cfi_def_cfa_register 29
	.loc 1 12 0
	bl	bb
	.loc 1 13 0
	mov	w0, 1
	.loc 1 14 0
	ldp	x29, x30, [sp], 16
	.cfi_restore 30
	.cfi_restore 29
	.cfi_def_cfa 31, 0
	ret
	.cfi_endproc
.LFE1:
	.size	aa, .-aa
	.align	2
	.global	_start
	.type	_start, %function
_start:
.LFB2:
	.loc 1 16 0
	.cfi_startproc
	sub	sp, sp, #4096
	.cfi_def_cfa_offset 4096
	sub	sp, sp, #784
	.cfi_def_cfa_offset 4880
	stp	x29, x30, [sp, -16]!
	.cfi_def_cfa_offset 4896
	.cfi_offset 29, -4896
	.cfi_offset 30, -4888
	add	x29, sp, 0
	.cfi_def_cfa_register 29
	str	w0, [x29, 28]
	str	w1, [x29, 24]
	.loc 1 24 0
	bl	aa
	.loc 1 25 0
	fmov	s0, wzr
	.loc 1 26 0
	ldp	x29, x30, [sp], 16
	.cfi_restore 30
	.cfi_restore 29
	.cfi_def_cfa 31, 4880
	add	sp, sp, 4096
	.cfi_def_cfa_offset 784
	add	sp, sp, 784
	.cfi_def_cfa_offset 0
	ret
	.cfi_endproc
.LFE2:
	.size	_start, .-_start
.Letext0:
	.section	.note.GNU-stack,"",@progbits
